; Function Attrs: mustprogress uwtable
define noundef zeroext i1 @_ZN5mmu_t4mmioEmmPh11access_type(ptr noundef nonnull readonly align 8 captures(none) dereferenceable(43168) %0, i64 noundef %1, i64 noundef %2, ptr noundef %3, i32 noundef %4) local_unnamed_addr #11 align 2 {
  %6 = tail call range(i64 0, 65) i64 @llvm.ctpop.i64(i64 %2)
  %7 = icmp samesign ult i64 %6, 2
  br i1 %7, label %8, label %.lr.ph

8:                                                ; preds = %5
  %9 = add i64 %2, -1
  %10 = and i64 %9, %1
  %11 = icmp eq i64 %10, 0
  br i1 %11, label %12, label %28

12:                                               ; preds = %8
  %13 = icmp ult i64 %1, 4096
  br i1 %13, label %14, label %_ZN5mmu_t7mmio_okEm11access_type.exit.sink.split

14:                                               ; preds = %12
  %15 = getelementptr inbounds nuw i8, ptr %0, i64 80
  %16 = load ptr, ptr %15, align 8, !tbaa !39
  %.not.i = icmp eq ptr %16, null
  br i1 %.not.i, label %_ZN5mmu_t7mmio_okEm11access_type.exit.sink.split, label %17

17:                                               ; preds = %14
  %18 = getelementptr inbounds nuw i8, ptr %16, i64 2416
  %19 = load i8, ptr %18, align 8, !tbaa !211, !range !69, !noundef !70
  %20 = trunc nuw i8 %19 to i1
  br i1 %20, label %_ZN5mmu_t7mmio_okEm11access_type.exit.sink.split, label %_ZN5mmu_t7mmio_okEm11access_type.exit

_ZN5mmu_t7mmio_okEm11access_type.exit.sink.split: ; preds = %12, %14, %17
  %21 = icmp eq i32 %4, 1
  %22 = getelementptr inbounds nuw i8, ptr %0, i64 72
  %23 = load ptr, ptr %22, align 8, !tbaa !15
  %24 = load ptr, ptr %23, align 8, !tbaa !40
  %. = select i1 %21, i64 32, i64 24
  %25 = getelementptr inbounds nuw i8, ptr %24, i64 %.
  %26 = load ptr, ptr %25, align 8
  %27 = tail call noundef zeroext i1 %26(ptr noundef nonnull align 8 dereferenceable(16) %23, i64 noundef %1, i64 noundef %2, ptr noundef %3)
  br label %_ZN5mmu_t7mmio_okEm11access_type.exit

28:                                               ; preds = %8
  %.not32 = icmp eq i64 %2, 0
  br i1 %.not32, label %_ZN5mmu_t7mmio_okEm11access_type.exit, label %.lr.ph

.lr.ph:                                           ; preds = %5, %28
  %29 = getelementptr inbounds nuw i8, ptr %0, i64 80
  %30 = icmp eq i32 %4, 1
  %31 = getelementptr inbounds nuw i8, ptr %0, i64 72
  br i1 %30, label %.lr.ph.split.us, label %.lr.ph.split

.lr.ph.split.us:                                  ; preds = %.lr.ph, %47
  %.033.us = phi i64 [ %48, %47 ], [ 0, %.lr.ph ]
  %32 = add i64 %.033.us, %1
  %33 = getelementptr inbounds nuw i8, ptr %3, i64 %.033.us
  %34 = icmp ult i64 %32, 4096
  br i1 %34, label %35, label %41

35:                                               ; preds = %.lr.ph.split.us
  %36 = load ptr, ptr %29, align 8, !tbaa !39
  %.not.i.i.us = icmp eq ptr %36, null
  br i1 %.not.i.i.us, label %41, label %37

37:                                               ; preds = %35
  %38 = getelementptr inbounds nuw i8, ptr %36, i64 2416
  %39 = load i8, ptr %38, align 8, !tbaa !211, !range !69, !noundef !70
  %40 = trunc nuw i8 %39 to i1
  br i1 %40, label %41, label %_ZN5mmu_t7mmio_okEm11access_type.exit

41:                                               ; preds = %37, %35, %.lr.ph.split.us
  %42 = load ptr, ptr %31, align 8, !tbaa !15
  %43 = load ptr, ptr %42, align 8, !tbaa !40
  %44 = getelementptr inbounds nuw i8, ptr %43, i64 32
  %45 = load ptr, ptr %44, align 8
  %46 = tail call noundef zeroext i1 %45(ptr noundef nonnull align 8 dereferenceable(16) %42, i64 noundef %32, i64 noundef 1, ptr noundef %33)
  br i1 %46, label %47, label %_ZN5mmu_t7mmio_okEm11access_type.exit

47:                                               ; preds = %41
  %48 = add nuw i64 %.033.us, 1
  %exitcond43.not = icmp eq i64 %48, %2
  br i1 %exitcond43.not, label %_ZN5mmu_t7mmio_okEm11access_type.exit, label %.lr.ph.split.us, !llvm.loop !229

.lr.ph.split:                                     ; preds = %.lr.ph, %63
  %.033 = phi i64 [ %64, %63 ], [ 0, %.lr.ph ]
  %49 = add i64 %.033, %1
  %50 = getelementptr inbounds nuw i8, ptr %3, i64 %.033
  %51 = icmp ult i64 %49, 4096
  br i1 %51, label %52, label %_ZN5mmu_t4mmioEmmPh11access_type.exit

52:                                               ; preds = %.lr.ph.split
  %53 = load ptr, ptr %29, align 8, !tbaa !39
  %.not.i.i = icmp eq ptr %53, null
  br i1 %.not.i.i, label %_ZN5mmu_t4mmioEmmPh11access_type.exit, label %54

54:                                               ; preds = %52
  %55 = getelementptr inbounds nuw i8, ptr %53, i64 2416
  %56 = load i8, ptr %55, align 8, !tbaa !211, !range !69, !noundef !70
  %57 = trunc nuw i8 %56 to i1
  br i1 %57, label %_ZN5mmu_t4mmioEmmPh11access_type.exit, label %_ZN5mmu_t7mmio_okEm11access_type.exit

_ZN5mmu_t4mmioEmmPh11access_type.exit:            ; preds = %.lr.ph.split, %52, %54
  %58 = load ptr, ptr %31, align 8, !tbaa !15
  %59 = load ptr, ptr %58, align 8, !tbaa !40
  %60 = getelementptr inbounds nuw i8, ptr %59, i64 24
  %61 = load ptr, ptr %60, align 8
  %62 = tail call noundef zeroext i1 %61(ptr noundef nonnull align 8 dereferenceable(16) %58, i64 noundef %49, i64 noundef 1, ptr noundef %50)
  br i1 %62, label %63, label %_ZN5mmu_t7mmio_okEm11access_type.exit

63:                                               ; preds = %_ZN5mmu_t4mmioEmmPh11access_type.exit
  %64 = add nuw i64 %.033, 1
  %exitcond.not = icmp eq i64 %64, %2
  br i1 %exitcond.not, label %_ZN5mmu_t7mmio_okEm11access_type.exit, label %.lr.ph.split, !llvm.loop !229

_ZN5mmu_t7mmio_okEm11access_type.exit:            ; preds = %54, %_ZN5mmu_t4mmioEmmPh11access_type.exit, %63, %37, %41, %47, %_ZN5mmu_t7mmio_okEm11access_type.exit.sink.split, %28, %17
  %.026 = phi i1 [ false, %17 ], [ true, %28 ], [ %27, %_ZN5mmu_t7mmio_okEm11access_type.exit.sink.split ], [ false, %37 ], [ false, %41 ], [ true, %47 ], [ false, %54 ], [ false, %_ZN5mmu_t4mmioEmmPh11access_type.exit ], [ true, %63 ]
  ret i1 %.026
}